target datalayout = "e-m:e-p270:32:32-p271:32:32-p272:64:64-i64:64-i128:128-f80:128-n8:16:32:64-S128"
target triple = "x86_64-pc-linux-gnu"

; Function Attrs: null_pointer_is_valid sspstrong uwtable
define internal i32 @get_dbus_message_len(ptr noundef %0, ptr noundef %1, i32 noundef %2, ptr noundef %3) #0 {
  %5 = alloca ptr, align 8
  %6 = alloca ptr, align 8
  %7 = alloca i32, align 4
  %8 = alloca ptr, align 8
  %9 = alloca ptr, align 8
  %10 = alloca i32, align 4
  %11 = alloca i32, align 4
  store ptr %0, ptr %5, align 8
  store ptr %1, ptr %6, align 8
  store i32 %2, ptr %7, align 4
  store ptr %3, ptr %8, align 8
  call void @llvm.lifetime.start.p0(i64 8, ptr %9) #11
  call void @llvm.lifetime.start.p0(i64 4, ptr %10) #11
  call void @llvm.lifetime.start.p0(i64 4, ptr %11) #11
  %12 = load ptr, ptr %6, align 8
  %13 = load i32, ptr %7, align 4
  %14 = call zeroext i8 @tvb_get_uint8(ptr noundef %12, i32 noundef %13)
  %15 = zext i8 %14 to i32
  switch i32 %15, label %18 [
    i32 108, label %16
    i32 66, label %17
  ]

16:                                               ; preds = %4
  store ptr @tvb_get_letohl, ptr %9, align 8
  br label %19

17:                                               ; preds = %4
  br label %18

18:                                               ; preds = %4, %17
  store ptr @tvb_get_ntohl, ptr %9, align 8
  br label %19

19:                                               ; preds = %18, %16
  %20 = load ptr, ptr %9, align 8
  %21 = load ptr, ptr %6, align 8
  %22 = load i32, ptr %7, align 4
  %23 = add i32 %22, 12
  %24 = call i32 %20(ptr noundef %21, i32 noundef %23)
  %25 = add i32 16, %24
  store i32 %25, ptr %11, align 4
  %26 = load i32, ptr %11, align 4
  %27 = add i32 %26, 7
  %28 = and i32 %27, -8
  store i32 %28, ptr %11, align 4
  %29 = load ptr, ptr %9, align 8
  %30 = load ptr, ptr %6, align 8
  %31 = load i32, ptr %7, align 4
  %32 = add i32 %31, 4
  %33 = call i32 %29(ptr noundef %30, i32 noundef %32)
  store i32 %33, ptr %10, align 4
  %34 = load i32, ptr %11, align 4
  %35 = load i32, ptr %10, align 4
  %36 = add i32 %34, %35
  call void @llvm.lifetime.end.p0(i64 4, ptr %11) #11
  call void @llvm.lifetime.end.p0(i64 4, ptr %10) #11
  call void @llvm.lifetime.end.p0(i64 8, ptr %9) #11
  ret i32 %36
}