; Function Attrs: null_pointer_is_valid sspstrong uwtable
define internal i32 @get_dbus_message_len(ptr readnone captures(none) %0, ptr noundef %1, i32 noundef %2, ptr readnone captures(none) %3) #0 {
  %5 = tail call zeroext i8 @tvb_get_uint8(ptr noundef %1, i32 noundef %2)
  %cond = icmp eq i8 %5, 108
  %tvb_get_letohl.tvb_get_ntohl = select i1 %cond, ptr @tvb_get_letohl, ptr @tvb_get_ntohl
  %6 = add i32 %2, 12
  %7 = tail call i32 %tvb_get_letohl.tvb_get_ntohl(ptr noundef %1, i32 noundef %6), !callees !21
  %8 = add i32 %7, 23
  %9 = and i32 %8, -8
  %10 = add i32 %2, 4
  %11 = tail call i32 %tvb_get_letohl.tvb_get_ntohl(ptr noundef %1, i32 noundef %10), !callees !21
  %12 = add i32 %9, %11
  ret i32 %12
}